; Function Attrs: mustprogress null_pointer_is_valid sspstrong uwtable
define void @_ZN23LBMLBTRUTransportDialog20receiversItemClickedEP15QTreeWidgetItemi(ptr noundef align 8 captures(none) dereferenceable_or_null(112) %0, ptr noundef %1, i32 %2) local_unnamed_addr #0 align 2 {
  %4 = icmp eq ptr %1, null
  br i1 %4, label %.thread, label %5

.thread:                                          ; preds = %3
  tail call void @_ZN23LBMLBTRUTransportDialog20resetReceiversDetailEv(ptr noundef align 8 dereferenceable_or_null(112) %0)
  br label %22

5:                                                ; preds = %3
  %6 = tail call ptr @__dynamic_cast(ptr nonnull %1, ptr nonnull @_ZTI15QTreeWidgetItem, ptr nonnull @_ZTI30LBMLBTRUReceiverTransportEntry, i64 0) #19
  tail call void @_ZN23LBMLBTRUTransportDialog20resetReceiversDetailEv(ptr noundef align 8 dereferenceable_or_null(112) %0)
  %7 = icmp eq ptr %6, null
  br i1 %7, label %22, label %8

8:                                                ; preds = %5
  %9 = getelementptr inbounds nuw i8, ptr %0, i64 72
  store ptr %6, ptr %9, align 8
  %10 = getelementptr inbounds nuw i8, ptr %0, i64 40
  %11 = load ptr, ptr %10, align 8
  %12 = getelementptr inbounds nuw i8, ptr %11, i64 624
  %13 = load ptr, ptr %12, align 8
  %14 = getelementptr inbounds nuw i8, ptr %6, i64 96
  tail call void @_ZN6QLabel7setTextERK7QString(ptr noundef align 8 dereferenceable_or_null(40) %13, ptr noundef nonnull align 8 dereferenceable(24) %14)
  %15 = load ptr, ptr %10, align 8
  %16 = getelementptr inbounds nuw i8, ptr %15, i64 608
  %17 = load ptr, ptr %16, align 8
  %18 = tail call noundef i32 @_ZNK9QComboBox12currentIndexEv(ptr noundef align 8 dereferenceable_or_null(40) %17)
  switch i32 %18, label %22 [
    i32 0, label %19
    i32 1, label %20
    i32 2, label %21
  ]

19:                                               ; preds = %8
  tail call void @_ZN23LBMLBTRUTransportDialog22loadReceiverNAKDetailsEP30LBMLBTRUReceiverTransportEntry(ptr noundef align 8 dereferenceable_or_null(112) %0, ptr noundef nonnull %6)
  br label %22

20:                                               ; preds = %8
  tail call void @_ZN23LBMLBTRUTransportDialog22loadReceiverACKDetailsEP30LBMLBTRUReceiverTransportEntry(ptr noundef align 8 dereferenceable_or_null(112) %0, ptr noundef nonnull %6)
  br label %22

21:                                               ; preds = %8
  tail call void @_ZN23LBMLBTRUTransportDialog23loadReceiverCREQDetailsEP30LBMLBTRUReceiverTransportEntry(ptr noundef align 8 dereferenceable_or_null(112) %0, ptr noundef nonnull %6)
  br label %22

22:                                               ; preds = %.thread, %19, %20, %21, %8, %5
  ret void
}